(lp0
(lp1
(lp2
cnumpy.core.multiarray
scalar
p3
(cnumpy
dtype
p4
(S'f8'
p5
I0
I1
tp6
Rp7
(I3
S'<'
p8
NNNI-1
I-1
I0
tp9
bS'<\n\xd7\xa3p-B@'
p10
tp11
Rp12
ag3
(g7
S'S"\x89^FAZ\xc0'
p13
tp14
Rp15
aa(lp16
g3
(g7
S'\xc9\x8d \x91\xab\x1eP@'
p17
tp18
Rp19
ag3
(g7
S'E\x8c\xdc\x90\xdc\xb7`\xc0'
p20
tp21
Rp22
aa(lp23
g3
(g7
S'\xa9)\x1dP\xc0\xa02@'
p24
tp25
Rp26
ag3
(g7
S'\x91\xcdT\t<\x06"\xc0'
p27
tp28
Rp29
aaa(lp30
(lp31
g3
(g7
S'`\x10X9\xb4\x88A@'
p32
tp33
Rp34
ag3
(g7
S'\xba\x14W\x95}\x16`\xc0'
p35
tp36
Rp37
aa(lp38
g3
(g7
S'\n\xaav@WRp@'
p39
tp40
Rp41
ag3
(g7
S'\xdc\xdeAh\xa3cn\xc0'
p42
tp43
Rp44
aa(lp45
g3
(g7
S'nd&MBu\x13@'
p46
tp47
Rp48
ag3
(g7
S'&\xd9\xf3m\xa4\x97\x16\xc0'
p49
tp50
Rp51
aaa.